; Function Attrs: mustprogress nounwind uwtable
define dso_local void @_ZN4llvm16MCObjectStreamer10emitFramesEPNS_12MCAsmBackendE(ptr noundef nonnull align 8 dereferenceable(424) %0, ptr noundef %1) local_unnamed_addr #0 align 2 {
  %3 = tail call noundef i32 @_ZN4llvm10MCStreamer16getNumFrameInfosEv(ptr noundef nonnull align 8 dereferenceable(288) %0) #20
  %.not = icmp eq i32 %3, 0
  br i1 %.not, label %14, label %4

4:                                                ; preds = %2
  %5 = getelementptr inbounds nuw i8, ptr %0, i64 296
  %6 = load i8, ptr %5, align 8
  %7 = trunc i8 %6 to i1
  br i1 %7, label %8, label %9

8:                                                ; preds = %4
  tail call void @_ZN4llvm19MCDwarfFrameEmitter4EmitERNS_16MCObjectStreamerEPNS_12MCAsmBackendEb(ptr noundef nonnull align 8 dereferenceable(424) %0, ptr noundef %1, i1 noundef zeroext true) #20
  br label %9

9:                                                ; preds = %8, %4
  %10 = getelementptr inbounds nuw i8, ptr %0, i64 297
  %11 = load i8, ptr %10, align 1
  %12 = trunc i8 %11 to i1
  br i1 %12, label %13, label %14

13:                                               ; preds = %9
  tail call void @_ZN4llvm19MCDwarfFrameEmitter4EmitERNS_16MCObjectStreamerEPNS_12MCAsmBackendEb(ptr noundef nonnull align 8 dereferenceable(424) %0, ptr noundef %1, i1 noundef zeroext false) #20
  br label %14

14:                                               ; preds = %2, %13, %9
  ret void
}